target datalayout = "e-m:e-p270:32:32-p271:32:32-p272:64:64-i64:64-i128:128-f80:128-n8:16:32:64-S128"
target triple = "x86_64-pc-linux-gnu"

%struct._object = type { %union.anon, ptr }
%union.anon = type { i64 }
%struct.PyVarObject = type { %struct._object, i64 }
%struct.PyTupleObject = type { %struct.PyVarObject, [1 x ptr] }
%struct.anon = type { i32, i32 }
%struct.dequeobject = type { %struct.PyVarObject, ptr, ptr, i64, i64, i64, i64, i64, [16 x ptr], ptr }
%struct.PyDictObject = type { %struct._object, i64, i64, ptr, ptr }

@_Py_NoneStruct = external global %struct._object, align 8
@PyExc_ValueError = external global ptr, align 8
@.str.15 = private unnamed_addr constant [28 x i8] c"maxlen must be non-negative\00", align 1

; Function Attrs: alwaysinline nounwind uwtable
define internal i32 @_Py_IsImmortal(ptr noundef %0) #4 {
  %2 = alloca ptr, align 8
  store ptr %0, ptr %2, align 8, !tbaa !4
  %3 = load ptr, ptr %2, align 8, !tbaa !4
  %4 = getelementptr inbounds nuw %struct._object, ptr %3, i32 0, i32 0
  %5 = getelementptr inbounds nuw %struct.anon, ptr %4, i32 0, i32 0
  %6 = load i32, ptr %5, align 8, !tbaa !39
  %7 = icmp slt i32 %6, 0
  %8 = zext i1 %7 to i32
  ret i32 %8
}

; Function Attrs: alwaysinline nounwind uwtable
define internal void @Py_DECREF(ptr noundef %0) #4 {
  %2 = alloca ptr, align 8
  store ptr %0, ptr %2, align 8, !tbaa !4
  %3 = load ptr, ptr %2, align 8, !tbaa !4
  %4 = call i32 @_Py_IsImmortal(ptr noundef %3)
  %5 = icmp ne i32 %4, 0
  br i1 %5, label %6, label %7

6:                                                ; preds = %1
  br label %16

7:                                                ; preds = %1
  %8 = load ptr, ptr %2, align 8, !tbaa !4
  %9 = getelementptr inbounds nuw %struct._object, ptr %8, i32 0, i32 0
  %10 = getelementptr inbounds nuw %struct.anon, ptr %9, i32 0, i32 0
  %11 = load i32, ptr %10, align 8, !tbaa !39
  %12 = add i32 %11, -1
  store i32 %12, ptr %10, align 8, !tbaa !39
  %13 = icmp eq i32 %12, 0
  br i1 %13, label %14, label %16

14:                                               ; preds = %7
  %15 = load ptr, ptr %2, align 8, !tbaa !4
  call void @_Py_Dealloc(ptr noundef %15)
  br label %16

16:                                               ; preds = %6, %14, %7
  ret void
}

; Function Attrs: inlinehint nounwind uwtable
define internal i64 @Py_SIZE(ptr noundef %0) #3 {
  %2 = alloca ptr, align 8
  store ptr %0, ptr %2, align 8, !tbaa !4
  %3 = load ptr, ptr %2, align 8, !tbaa !4
  %4 = getelementptr inbounds nuw %struct.PyVarObject, ptr %3, i32 0, i32 1
  %5 = load i64, ptr %4, align 8, !tbaa !72
  ret i64 %5
}

; Function Attrs: nounwind uwtable
define internal i32 @deque_init_impl(ptr noundef %0, ptr noundef %1, ptr noundef %2) #0 {
  %4 = alloca i32, align 4
  %5 = alloca ptr, align 8
  %6 = alloca ptr, align 8
  %7 = alloca ptr, align 8
  %8 = alloca i64, align 8
  %9 = alloca i32, align 4
  %10 = alloca ptr, align 8
  store ptr %0, ptr %5, align 8, !tbaa !43
  store ptr %1, ptr %6, align 8, !tbaa !4
  store ptr %2, ptr %7, align 8, !tbaa !4
  call void @llvm.lifetime.start.p0(i64 8, ptr %8) #7
  store i64 -1, ptr %8, align 8, !tbaa !24
  %11 = load ptr, ptr %7, align 8, !tbaa !4
  %12 = icmp ne ptr %11, null
  br i1 %12, label %13, label %31

13:                                               ; preds = %3
  %14 = load ptr, ptr %7, align 8, !tbaa !4
  %15 = icmp ne ptr %14, @_Py_NoneStruct
  br i1 %15, label %16, label %31

16:                                               ; preds = %13
  %17 = load ptr, ptr %7, align 8, !tbaa !4
  %18 = call i64 @PyLong_AsSsize_t(ptr noundef %17)
  store i64 %18, ptr %8, align 8, !tbaa !24
  %19 = load i64, ptr %8, align 8, !tbaa !24
  %20 = icmp eq i64 %19, -1
  br i1 %20, label %21, label %25

21:                                               ; preds = %16
  %22 = call ptr @PyErr_Occurred()
  %23 = icmp ne ptr %22, null
  br i1 %23, label %24, label %25

24:                                               ; preds = %21
  store i32 -1, ptr %4, align 4
  store i32 1, ptr %9, align 4
  br label %57

25:                                               ; preds = %21, %16
  %26 = load i64, ptr %8, align 8, !tbaa !24
  %27 = icmp slt i64 %26, 0
  br i1 %27, label %28, label %30

28:                                               ; preds = %25
  %29 = load ptr, ptr @PyExc_ValueError, align 8, !tbaa !4
  call void @PyErr_SetString(ptr noundef %29, ptr noundef @.str.15)
  store i32 -1, ptr %4, align 4
  store i32 1, ptr %9, align 4
  br label %57

30:                                               ; preds = %25
  br label %31

31:                                               ; preds = %30, %13, %3
  %32 = load i64, ptr %8, align 8, !tbaa !24
  %33 = load ptr, ptr %5, align 8, !tbaa !43
  %34 = getelementptr inbounds nuw %struct.dequeobject, ptr %33, i32 0, i32 6
  store i64 %32, ptr %34, align 8, !tbaa !55
  %35 = load ptr, ptr %5, align 8, !tbaa !43
  %36 = call i64 @Py_SIZE(ptr noundef %35)
  %37 = icmp sgt i64 %36, 0
  br i1 %37, label %38, label %41

38:                                               ; preds = %31
  %39 = load ptr, ptr %5, align 8, !tbaa !43
  %40 = call i32 @deque_clear(ptr noundef %39)
  br label %41

41:                                               ; preds = %38, %31
  %42 = load ptr, ptr %6, align 8, !tbaa !4
  %43 = icmp ne ptr %42, null
  br i1 %43, label %44, label %56

44:                                               ; preds = %41
  call void @llvm.lifetime.start.p0(i64 8, ptr %10) #7
  %45 = load ptr, ptr %5, align 8, !tbaa !43
  %46 = load ptr, ptr %6, align 8, !tbaa !4
  %47 = call ptr @deque_extend_impl(ptr noundef %45, ptr noundef %46)
  store ptr %47, ptr %10, align 8, !tbaa !4
  %48 = load ptr, ptr %10, align 8, !tbaa !4
  %49 = icmp eq ptr %48, null
  br i1 %49, label %50, label %51

50:                                               ; preds = %44
  store i32 -1, ptr %4, align 4
  store i32 1, ptr %9, align 4
  br label %53

51:                                               ; preds = %44
  %52 = load ptr, ptr %10, align 8, !tbaa !4
  call void @Py_DECREF(ptr noundef %52)
  store i32 0, ptr %9, align 4
  br label %53

53:                                               ; preds = %51, %50
  call void @llvm.lifetime.end.p0(i64 8, ptr %10) #7
  %54 = load i32, ptr %9, align 4
  switch i32 %54, label %57 [
    i32 0, label %55
  ]

55:                                               ; preds = %53
  br label %56

56:                                               ; preds = %55, %41
  store i32 0, ptr %4, align 4
  store i32 1, ptr %9, align 4
  br label %57

57:                                               ; preds = %56, %53, %28, %24
  call void @llvm.lifetime.end.p0(i64 8, ptr %8) #7
  %58 = load i32, ptr %4, align 4
  ret i32 %58
}

; Function Attrs: inlinehint nounwind uwtable
define internal i64 @PyDict_GET_SIZE(ptr noundef %0) #3 {
  %2 = alloca ptr, align 8
  %3 = alloca ptr, align 8
  store ptr %0, ptr %2, align 8, !tbaa !4
  call void @llvm.lifetime.start.p0(i64 8, ptr %3) #7
  %4 = load ptr, ptr %2, align 8, !tbaa !4
  store ptr %4, ptr %3, align 8, !tbaa !9
  %5 = load ptr, ptr %3, align 8, !tbaa !9
  %6 = getelementptr inbounds nuw %struct.PyDictObject, ptr %5, i32 0, i32 1
  %7 = load i64, ptr %6, align 8, !tbaa !74
  call void @llvm.lifetime.end.p0(i64 8, ptr %3) #7
  ret i64 %7
}

; Function Attrs: inlinehint nounwind uwtable
define internal i64 @PyTuple_GET_SIZE(ptr noundef %0) #3 {
  %2 = alloca ptr, align 8
  %3 = alloca ptr, align 8
  store ptr %0, ptr %2, align 8, !tbaa !4
  call void @llvm.lifetime.start.p0(i64 8, ptr %3) #7
  %4 = load ptr, ptr %2, align 8, !tbaa !4
  store ptr %4, ptr %3, align 8, !tbaa !9
  %5 = load ptr, ptr %3, align 8, !tbaa !9
  %6 = call i64 @Py_SIZE(ptr noundef %5)
  call void @llvm.lifetime.end.p0(i64 8, ptr %3) #7
  ret i64 %6
}

; Function Attrs: nounwind uwtable
define internal i32 @deque_init(ptr noundef %0, ptr noundef %1, ptr noundef %2) #0 {
  %4 = alloca ptr, align 8
  %5 = alloca ptr, align 8
  %6 = alloca ptr, align 8
  %7 = alloca i32, align 4
  %8 = alloca [2 x ptr], align 16
  %9 = alloca ptr, align 8
  %10 = alloca i64, align 8
  %11 = alloca i64, align 8
  %12 = alloca ptr, align 8
  %13 = alloca ptr, align 8
  store ptr %0, ptr %4, align 8, !tbaa !4
  store ptr %1, ptr %5, align 8, !tbaa !4
  store ptr %2, ptr %6, align 8, !tbaa !4
  call void @llvm.lifetime.start.p0(i64 4, ptr %7) #7
  store i32 -1, ptr %7, align 4, !tbaa !13
  call void @llvm.lifetime.start.p0(i64 16, ptr %8) #7
  call void @llvm.lifetime.start.p0(i64 8, ptr %9) #7
  call void @llvm.lifetime.start.p0(i64 8, ptr %10) #7
  %14 = load ptr, ptr %5, align 8, !tbaa !4
  %15 = call i64 @PyTuple_GET_SIZE(ptr noundef %14)
  store i64 %15, ptr %10, align 8, !tbaa !24
  call void @llvm.lifetime.start.p0(i64 8, ptr %11) #7
  %16 = load i64, ptr %10, align 8, !tbaa !24
  %17 = load ptr, ptr %6, align 8, !tbaa !4
  %18 = icmp ne ptr %17, null
  br i1 %18, label %19, label %22

19:                                               ; preds = %3
  %20 = load ptr, ptr %6, align 8, !tbaa !4
  %21 = call i64 @PyDict_GET_SIZE(ptr noundef %20)
  br label %23

22:                                               ; preds = %3
  br label %23

23:                                               ; preds = %22, %19
  %24 = phi i64 [ %21, %19 ], [ 0, %22 ]
  %25 = add i64 %16, %24
  %26 = sub i64 %25, 0
  store i64 %26, ptr %11, align 8, !tbaa !24
  call void @llvm.lifetime.start.p0(i64 8, ptr %12) #7
  store ptr null, ptr %12, align 8, !tbaa !4
  call void @llvm.lifetime.start.p0(i64 8, ptr %13) #7
  store ptr null, ptr %13, align 8, !tbaa !4
  %27 = load ptr, ptr %6, align 8, !tbaa !4
  %28 = icmp eq ptr %27, null
  br i1 %28, label %29, label %44

29:                                               ; preds = %23
  %30 = load i64, ptr %10, align 8, !tbaa !24
  %31 = icmp sle i64 0, %30
  br i1 %31, label %32, label %44

32:                                               ; preds = %29
  %33 = load i64, ptr %10, align 8, !tbaa !24
  %34 = icmp sle i64 %33, 2
  br i1 %34, label %35, label %44

35:                                               ; preds = %32
  %36 = load ptr, ptr %5, align 8, !tbaa !4
  %37 = getelementptr inbounds nuw %struct.PyTupleObject, ptr %36, i32 0, i32 1
  %38 = getelementptr inbounds [1 x ptr], ptr %37, i64 0, i64 0
  %39 = icmp ne ptr %38, null
  br i1 %39, label %40, label %44

40:                                               ; preds = %35
  %41 = load ptr, ptr %5, align 8, !tbaa !4
  %42 = getelementptr inbounds nuw %struct.PyTupleObject, ptr %41, i32 0, i32 1
  %43 = getelementptr inbounds [1 x ptr], ptr %42, i64 0, i64 0
  br label %52

44:                                               ; preds = %35, %32, %29, %23
  %45 = load ptr, ptr %5, align 8, !tbaa !4
  %46 = getelementptr inbounds nuw %struct.PyTupleObject, ptr %45, i32 0, i32 1
  %47 = getelementptr inbounds [1 x ptr], ptr %46, i64 0, i64 0
  %48 = load i64, ptr %10, align 8, !tbaa !24
  %49 = load ptr, ptr %6, align 8, !tbaa !4
  %50 = getelementptr inbounds [2 x ptr], ptr %8, i64 0, i64 0
  %51 = call ptr @_PyArg_UnpackKeywords(ptr noundef %47, i64 noundef %48, ptr noundef %49, ptr noundef null, ptr noundef @deque_init._parser, i32 noundef 0, i32 noundef 2, i32 noundef 0, i32 noundef 0, ptr noundef %50)
  br label %52

52:                                               ; preds = %44, %40
  %53 = phi ptr [ %43, %40 ], [ %51, %44 ]
  store ptr %53, ptr %9, align 8, !tbaa !22
  %54 = load ptr, ptr %9, align 8, !tbaa !22
  %55 = icmp ne ptr %54, null
  br i1 %55, label %57, label %56

56:                                               ; preds = %52
  br label %84

57:                                               ; preds = %52
  %58 = load i64, ptr %11, align 8, !tbaa !24
  %59 = icmp ne i64 %58, 0
  br i1 %59, label %61, label %60

60:                                               ; preds = %57
  br label %79

61:                                               ; preds = %57
  %62 = load ptr, ptr %9, align 8, !tbaa !22
  %63 = getelementptr ptr, ptr %62, i64 0
  %64 = load ptr, ptr %63, align 8, !tbaa !4
  %65 = icmp ne ptr %64, null
  br i1 %65, label %66, label %75

66:                                               ; preds = %61
  %67 = load ptr, ptr %9, align 8, !tbaa !22
  %68 = getelementptr ptr, ptr %67, i64 0
  %69 = load ptr, ptr %68, align 8, !tbaa !4
  store ptr %69, ptr %12, align 8, !tbaa !4
  %70 = load i64, ptr %11, align 8, !tbaa !24
  %71 = add i64 %70, -1
  store i64 %71, ptr %11, align 8, !tbaa !24
  %72 = icmp ne i64 %71, 0
  br i1 %72, label %74, label %73

73:                                               ; preds = %66
  br label %79

74:                                               ; preds = %66
  br label %75

75:                                               ; preds = %74, %61
  %76 = load ptr, ptr %9, align 8, !tbaa !22
  %77 = getelementptr ptr, ptr %76, i64 1
  %78 = load ptr, ptr %77, align 8, !tbaa !4
  store ptr %78, ptr %13, align 8, !tbaa !4
  br label %79

79:                                               ; preds = %75, %73, %60
  %80 = load ptr, ptr %4, align 8, !tbaa !4
  %81 = load ptr, ptr %12, align 8, !tbaa !4
  %82 = load ptr, ptr %13, align 8, !tbaa !4
  %83 = call i32 @deque_init_impl(ptr noundef %80, ptr noundef %81, ptr noundef %82)
  store i32 %83, ptr %7, align 4, !tbaa !13
  br label %84

84:                                               ; preds = %79, %56
  %85 = load i32, ptr %7, align 4, !tbaa !13
  call void @llvm.lifetime.end.p0(i64 8, ptr %13) #7
  call void @llvm.lifetime.end.p0(i64 8, ptr %12) #7
  call void @llvm.lifetime.end.p0(i64 8, ptr %11) #7
  call void @llvm.lifetime.end.p0(i64 8, ptr %10) #7
  call void @llvm.lifetime.end.p0(i64 8, ptr %9) #7
  call void @llvm.lifetime.end.p0(i64 16, ptr %8) #7
  call void @llvm.lifetime.end.p0(i64 4, ptr %7) #7
  ret i32 %85
}