; Function Attrs: nounwind uwtable
define internal range(i32 -1, 1) i32 @deque_init(ptr noundef %0, ptr noundef %1, ptr noundef %2) #0 {
  %4 = alloca [2 x ptr], align 16
  call void @llvm.lifetime.start.p0(i64 16, ptr nonnull %4) #9
  %5 = getelementptr i8, ptr %1, i64 16
  %.val = load i64, ptr %5, align 8, !tbaa !52
  %.not = icmp eq ptr %2, null
  br i1 %.not, label %9, label %.thread

.thread:                                          ; preds = %3
  %6 = getelementptr i8, ptr %2, i64 16
  %.val38 = load i64, ptr %6, align 8, !tbaa !65
  %7 = add i64 %.val38, %.val
  %8 = getelementptr inbounds nuw i8, ptr %1, i64 24
  br label %12

9:                                                ; preds = %3
  %10 = icmp ult i64 %.val, 3
  %11 = getelementptr inbounds nuw i8, ptr %1, i64 24
  br i1 %10, label %.thread40, label %12

12:                                               ; preds = %9, %.thread
  %13 = phi ptr [ %8, %.thread ], [ %11, %9 ]
  %14 = phi i64 [ %7, %.thread ], [ %.val, %9 ]
  %15 = call ptr @_PyArg_UnpackKeywords(ptr noundef nonnull %13, i64 noundef %.val, ptr noundef %2, ptr noundef null, ptr noundef nonnull @deque_init._parser, i32 noundef 0, i32 noundef 2, i32 noundef 0, i32 noundef 0, ptr noundef nonnull %4) #9
  %.not34 = icmp eq ptr %15, null
  br i1 %.not34, label %deque_init_impl.exit, label %.thread40

.thread40:                                        ; preds = %9, %12
  %16 = phi ptr [ %15, %12 ], [ %11, %9 ]
  %17 = phi i64 [ %14, %12 ], [ %.val, %9 ]
  %.not35 = icmp eq i64 %17, 0
  br i1 %.not35, label %.thread42, label %18

18:                                               ; preds = %.thread40
  %19 = load ptr, ptr %16, align 8, !tbaa !21
  %.not36 = icmp ne ptr %19, null
  %.not37 = icmp eq i64 %17, 1
  %or.cond = and i1 %.not37, %.not36
  br i1 %or.cond, label %.thread42, label %20

20:                                               ; preds = %18
  %21 = getelementptr i8, ptr %16, i64 8
  %22 = load ptr, ptr %21, align 8, !tbaa !21
  %23 = icmp ne ptr %22, null
  %24 = icmp ne ptr %22, @_Py_NoneStruct
  %or.cond.i = and i1 %23, %24
  br i1 %or.cond.i, label %25, label %.thread42

25:                                               ; preds = %20
  %26 = call i64 @PyLong_AsSsize_t(ptr noundef nonnull %22) #9
  %27 = icmp eq i64 %26, -1
  br i1 %27, label %28, label %30

28:                                               ; preds = %25
  %29 = call ptr @PyErr_Occurred() #9
  %.not.i = icmp eq ptr %29, null
  br i1 %.not.i, label %.thread.i, label %deque_init_impl.exit

30:                                               ; preds = %25
  %31 = icmp slt i64 %26, 0
  br i1 %31, label %.thread.i, label %.thread42

.thread.i:                                        ; preds = %30, %28
  %32 = load ptr, ptr @PyExc_ValueError, align 8, !tbaa !21
  call void @PyErr_SetString(ptr noundef %32, ptr noundef nonnull @.str.15) #9
  br label %deque_init_impl.exit

.thread42:                                        ; preds = %18, %.thread40, %30, %20
  %.02846 = phi ptr [ %19, %30 ], [ %19, %20 ], [ null, %.thread40 ], [ %19, %18 ]
  %.017.i = phi i64 [ %26, %30 ], [ -1, %20 ], [ -1, %.thread40 ], [ -1, %18 ]
  %33 = getelementptr inbounds nuw i8, ptr %0, i64 64
  store i64 %.017.i, ptr %33, align 8, !tbaa !45
  %34 = getelementptr i8, ptr %0, i64 16
  %.val.i = load i64, ptr %34, align 8, !tbaa !52
  %35 = icmp sgt i64 %.val.i, 0
  br i1 %35, label %36, label %38

36:                                               ; preds = %.thread42
  %37 = call i32 @deque_clear(ptr noundef nonnull %0)
  br label %38

38:                                               ; preds = %36, %.thread42
  %.not22.i = icmp eq ptr %.02846, null
  br i1 %.not22.i, label %deque_init_impl.exit, label %39

39:                                               ; preds = %38
  %40 = call fastcc ptr @deque_extend_impl(ptr noundef nonnull %0, ptr noundef nonnull %.02846)
  %.not23.i = icmp eq ptr %40, null
  br i1 %.not23.i, label %deque_init_impl.exit, label %41

41:                                               ; preds = %39
  %42 = load i32, ptr %40, align 8, !tbaa !20
  %.not.i.i = icmp sgt i32 %42, -1
  br i1 %.not.i.i, label %43, label %deque_init_impl.exit

43:                                               ; preds = %41
  %44 = add nsw i32 %42, -1
  store i32 %44, ptr %40, align 8, !tbaa !20
  %45 = icmp eq i32 %44, 0
  br i1 %45, label %46, label %deque_init_impl.exit

46:                                               ; preds = %43
  call void @_Py_Dealloc(ptr noundef nonnull %40) #9
  br label %deque_init_impl.exit

deque_init_impl.exit:                             ; preds = %46, %43, %41, %39, %38, %.thread.i, %28, %12
  %.029 = phi i32 [ -1, %12 ], [ -1, %.thread.i ], [ -1, %28 ], [ -1, %39 ], [ 0, %38 ], [ 0, %41 ], [ 0, %43 ], [ 0, %46 ]
  call void @llvm.lifetime.end.p0(i64 16, ptr nonnull %4) #9
  ret i32 %.029
}